; Function Attrs: mustprogress nofree norecurse nosync nounwind willreturn memory(read, inaccessiblemem: none) uwtable
define internal noundef zeroext i1 @_ZNK12_GLOBAL__N_18mam_impl8has_workEv(ptr nocapture noundef nonnull readonly align 8 dereferenceable(98976) %this) unnamed_addr #6 align 2 {
entry:
  %m_to_match = getelementptr inbounds i8, ptr %this, i64 520
  %m_to_match.val = load ptr, ptr %m_to_match, align 8
  %cmp.i = icmp eq ptr %m_to_match.val, null
  br i1 %cmp.i, label %lor.rhs, label %_ZNK6vectorIPN12_GLOBAL__N_19code_treeELb0EjE5emptyEv.exit

_ZNK6vectorIPN12_GLOBAL__N_19code_treeELb0EjE5emptyEv.exit: ; preds = %entry
  %arrayidx.i = getelementptr inbounds i8, ptr %m_to_match.val, i64 -4
  %0 = load i32, ptr %arrayidx.i, align 4
  %cmp3.i = icmp eq i32 %0, 0
  br i1 %cmp3.i, label %lor.rhs, label %lor.end

lor.rhs:                                          ; preds = %entry, %_ZNK6vectorIPN12_GLOBAL__N_19code_treeELb0EjE5emptyEv.exit
  %m_new_patterns = getelementptr inbounds i8, ptr %this, i64 528
  %1 = load ptr, ptr %m_new_patterns, align 8
  %cmp.i1 = icmp eq ptr %1, null
  br i1 %cmp.i1, label %lor.end, label %lor.rhs.i2

lor.rhs.i2:                                       ; preds = %lor.rhs
  %arrayidx.i3 = getelementptr inbounds i8, ptr %1, i64 -4
  %2 = load i32, ptr %arrayidx.i3, align 4
  %cmp3.i4 = icmp ne i32 %2, 0
  br label %lor.end

lor.end:                                          ; preds = %lor.rhs.i2, %lor.rhs, %_ZNK6vectorIPN12_GLOBAL__N_19code_treeELb0EjE5emptyEv.exit
  %3 = phi i1 [ true, %_ZNK6vectorIPN12_GLOBAL__N_19code_treeELb0EjE5emptyEv.exit ], [ false, %lor.rhs ], [ %cmp3.i4, %lor.rhs.i2 ]
  ret i1 %3
}